target datalayout = "e-m:e-p270:32:32-p271:32:32-p272:64:64-i64:64-i128:128-f80:128-n8:16:32:64-S128"
target triple = "x86_64-pc-linux-gnu"

@.str = private unnamed_addr constant [11 x i8] c"1.50.1-dev\00", align 1

; Function Attrs: nounwind uwtable
define dso_local i32 @uv_version() #0 {
  ret i32 78337
}

; Function Attrs: nounwind uwtable
define dso_local ptr @uv_version_string() #0 {
  ret ptr @.str
}


!llvm.module.flags = !{!0, !1, !2, !3}

!0 = !{i32 1, !"wchar_size", i32 4}
!1 = !{i32 8, !"PIC Level", i32 2}
!2 = !{i32 7, !"PIE Level", i32 2}
!3 = !{i32 7, !"uwtable", i32 2}
